target datalayout = "e-m:e-p270:32:32-p271:32:32-p272:64:64-i64:64-i128:128-f80:128-n8:16:32:64-S128"
target triple = "x86_64-unknown-linux-gnu"

%"struct.node::AssertionInfo" = type { ptr, ptr, ptr }
%"class.node::quic::CID" = type { %"class.node::MemoryRetainer", %struct.ngtcp2_cid, ptr }
%"class.node::MemoryRetainer" = type { ptr }
%struct.ngtcp2_cid = type { i64, [20 x i8] }

@_ZZN4node4quic3CIDaSERKS1_E4args = internal constant %"struct.node::AssertionInfo" { ptr @.str.6, ptr @.str.4, ptr @.str.7 }, align 8

; Function Attrs: mustprogress nounwind uwtable
define dso_local noundef nonnull align 8 dereferenceable(48) ptr @_ZN4node4quic3CIDaSERKS1_(ptr noundef nonnull align 8 dereferenceable(48) %this, ptr noundef nonnull align 8 dereferenceable(48) %other) #4 align 2 {
entry:
  %this.addr = alloca ptr, align 8
  %other.addr = alloca ptr, align 8
  store ptr %this, ptr %this.addr, align 8
  store ptr %other, ptr %other.addr, align 8
  %this1 = load ptr, ptr %this.addr, align 8
  br label %do.body

do.body:                                          ; preds = %entry
  %0 = load ptr, ptr %other.addr, align 8
  %ptr_ = getelementptr inbounds %"class.node::quic::CID", ptr %0, i32 0, i32 2
  %1 = load ptr, ptr %ptr_, align 8
  %cmp = icmp ne ptr %1, null
  %lnot = xor i1 %cmp, true
  %lnot2 = xor i1 %lnot, true
  %lnot3 = xor i1 %lnot2, true
  br i1 %lnot3, label %if.then, label %if.end

if.then:                                          ; preds = %do.body
  br label %do.body4

do.body4:                                         ; preds = %if.then
  call void @_ZN4node6AssertERKNS_13AssertionInfoE(ptr noundef nonnull align 8 dereferenceable(24) @_ZZN4node4quic3CIDaSERKS1_E4args)
  call void @abort() #10
  unreachable

do.end:                                           ; No predecessors!
  br label %if.end

if.end:                                           ; preds = %do.end, %do.body
  br label %do.end5

do.end5:                                          ; preds = %if.end
  %cid_ = getelementptr inbounds %"class.node::quic::CID", ptr %this1, i32 0, i32 1
  %ptr_6 = getelementptr inbounds %"class.node::quic::CID", ptr %this1, i32 0, i32 2
  store ptr %cid_, ptr %ptr_6, align 8
  %cid_7 = getelementptr inbounds %"class.node::quic::CID", ptr %this1, i32 0, i32 1
  %2 = load ptr, ptr %other.addr, align 8
  %ptr_8 = getelementptr inbounds %"class.node::quic::CID", ptr %2, i32 0, i32 2
  %3 = load ptr, ptr %ptr_8, align 8
  %data = getelementptr inbounds %struct.ngtcp2_cid, ptr %3, i32 0, i32 1
  %arraydecay = getelementptr inbounds [20 x i8], ptr %data, i64 0, i64 0
  %4 = load ptr, ptr %other.addr, align 8
  %ptr_9 = getelementptr inbounds %"class.node::quic::CID", ptr %4, i32 0, i32 2
  %5 = load ptr, ptr %ptr_9, align 8
  %datalen = getelementptr inbounds %struct.ngtcp2_cid, ptr %5, i32 0, i32 0
  %6 = load i64, ptr %datalen, align 8
  call void @ngtcp2_cid_init(ptr noundef %cid_7, ptr noundef %arraydecay, i64 noundef %6)
  ret ptr %this1
}