; Function Attrs: mustprogress nounwind uwtable
define dso_local noundef nonnull align 8 dereferenceable(48) ptr @_ZN4node4quic3CIDaSERKS1_(ptr noundef nonnull returned align 8 dereferenceable(48) %this, ptr nocapture noundef nonnull readonly align 8 dereferenceable(48) %other) local_unnamed_addr #4 align 2 {
entry:
  %ptr_ = getelementptr inbounds i8, ptr %other, i64 40
  %0 = load ptr, ptr %ptr_, align 8
  %cmp.not = icmp eq ptr %0, null
  br i1 %cmp.not, label %do.body4, label %do.end5

do.body4:                                         ; preds = %entry
  tail call void @_ZN4node6AssertERKNS_13AssertionInfoE(ptr noundef nonnull align 8 dereferenceable(24) @_ZZN4node4quic3CIDaSERKS1_E4args) #12
  tail call void @abort() #13
  unreachable

do.end5:                                          ; preds = %entry
  %cid_ = getelementptr inbounds i8, ptr %this, i64 8
  %ptr_6 = getelementptr inbounds i8, ptr %this, i64 40
  store ptr %cid_, ptr %ptr_6, align 8
  %1 = load ptr, ptr %ptr_, align 8
  %data = getelementptr inbounds i8, ptr %1, i64 8
  %2 = load i64, ptr %1, align 8
  tail call void @ngtcp2_cid_init(ptr noundef nonnull %cid_, ptr noundef nonnull %data, i64 noundef %2) #12
  ret ptr %this
}